target datalayout = "e-m:e-p270:32:32-p271:32:32-p272:64:64-i64:64-i128:128-f80:128-n8:16:32:64-S128"
target triple = "x86_64-pc-linux-gnu"

%struct.VLCElem = type { %union.anon.1 }
%union.anon.1 = type { %struct.anon }
%struct.anon = type { i16, i16 }
%struct.VLCInitState = type { ptr, i32 }

@__const.mpc7_init_static.state = private unnamed_addr constant { ptr, i32, [4 x i8] } { ptr @mpc7_init_static.quant_tables, i32 7224, [4 x i8] zeroinitializer }, align 8
@scfi_vlc = internal global [8 x %struct.VLCElem] zeroinitializer, align 16
@mpc7_scfi = internal constant [8 x i8] c"\03\02\00\03\02\03\01\01", align 1
@dscf_vlc = internal global [64 x %struct.VLCElem] zeroinitializer, align 16
@mpc7_dscf = internal constant [32 x i8] c"\05\03\01\05\0D\05\0B\04\09\03\06\03\00\06\0E\06\02\05\07\04\08\03\0F\04\04\04\0A\04\03\05\0C\05", align 16
@hdr_vlc = internal global [512 x %struct.VLCElem] zeroinitializer, align 16
@mpc7_hdr = internal constant [20 x i8] c"\04\02\03\04\02\05\07\06\00\08\09\09\08\09\01\07\06\03\05\01", align 16
@mpc7_quant_vlc_sizes = internal constant [7 x i8] c"\1B\19\07\09\0F\1F?", align 1
@mpc7_quant_vlc_off = internal constant [7 x i8] c"\00\00\FD\FC\F9\F1\E1", align 1
@quant_vlc = internal global [7 x [2 x ptr]] zeroinitializer, align 16

; Function Attrs: cold nounwind optsize uwtable
define internal void @mpc7_init_static() #0 {
  %1 = alloca %struct.VLCInitState, align 8
  %2 = alloca ptr, align 8
  %3 = alloca i32, align 4
  %4 = alloca i32, align 4
  %5 = alloca i32, align 4
  call void @llvm.lifetime.start.p0(i64 16, ptr %1) #9
  call void @llvm.memcpy.p0.p0.i64(ptr align 8 %1, ptr align 8 @__const.mpc7_init_static.state, i64 16, i1 false)
  call void @llvm.lifetime.start.p0(i64 8, ptr %2) #9
  store ptr @mpc7_quant_vlcs, ptr %2, align 8, !tbaa !31
  call void @ff_vlc_init_table_from_lengths(ptr noundef @scfi_vlc, i32 noundef 8, i32 noundef 3, i32 noundef 4, ptr noundef getelementptr inbounds ([8 x i8], ptr @mpc7_scfi, i64 0, i64 1), i32 noundef 2, ptr noundef @mpc7_scfi, i32 noundef 2, i32 noundef 1, i32 noundef 0, i32 noundef 0)
  call void @ff_vlc_init_table_from_lengths(ptr noundef @dscf_vlc, i32 noundef 64, i32 noundef 6, i32 noundef 16, ptr noundef getelementptr inbounds ([32 x i8], ptr @mpc7_dscf, i64 0, i64 1), i32 noundef 2, ptr noundef @mpc7_dscf, i32 noundef 2, i32 noundef 1, i32 noundef -7, i32 noundef 0)
  call void @ff_vlc_init_table_from_lengths(ptr noundef @hdr_vlc, i32 noundef 512, i32 noundef 9, i32 noundef 10, ptr noundef getelementptr inbounds ([20 x i8], ptr @mpc7_hdr, i64 0, i64 1), i32 noundef 2, ptr noundef @mpc7_hdr, i32 noundef 2, i32 noundef 1, i32 noundef -5, i32 noundef 0)
  call void @llvm.lifetime.start.p0(i64 4, ptr %3) #9
  store i32 0, ptr %3, align 4, !tbaa !52
  br label %6

6:                                                ; preds = %50, %0
  %7 = load i32, ptr %3, align 4, !tbaa !52
  %8 = icmp slt i32 %7, 7
  br i1 %8, label %10, label %9

9:                                                ; preds = %6
  store i32 2, ptr %4, align 4
  call void @llvm.lifetime.end.p0(i64 4, ptr %3) #9
  br label %53

10:                                               ; preds = %6
  call void @llvm.lifetime.start.p0(i64 4, ptr %5) #9
  store i32 0, ptr %5, align 4, !tbaa !52
  br label %11

11:                                               ; preds = %46, %10
  %12 = load i32, ptr %5, align 4, !tbaa !52
  %13 = icmp slt i32 %12, 2
  br i1 %13, label %15, label %14

14:                                               ; preds = %11
  store i32 5, ptr %4, align 4
  call void @llvm.lifetime.end.p0(i64 4, ptr %5) #9
  br label %49

15:                                               ; preds = %11
  %16 = load i32, ptr %3, align 4, !tbaa !52
  %17 = sext i32 %16 to i64
  %18 = getelementptr inbounds [7 x i8], ptr @mpc7_quant_vlc_sizes, i64 0, i64 %17
  %19 = load i8, ptr %18, align 1, !tbaa !49
  %20 = zext i8 %19 to i32
  %21 = load ptr, ptr %2, align 8, !tbaa !31
  %22 = getelementptr inbounds i8, ptr %21, i64 1
  %23 = load ptr, ptr %2, align 8, !tbaa !31
  %24 = getelementptr inbounds i8, ptr %23, i64 0
  %25 = load i32, ptr %3, align 4, !tbaa !52
  %26 = sext i32 %25 to i64
  %27 = getelementptr inbounds [7 x i8], ptr @mpc7_quant_vlc_off, i64 0, i64 %26
  %28 = load i8, ptr %27, align 1, !tbaa !49
  %29 = sext i8 %28 to i32
  %30 = call ptr @ff_vlc_init_tables_from_lengths(ptr noundef %1, i32 noundef 9, i32 noundef %20, ptr noundef %22, i32 noundef 2, ptr noundef %24, i32 noundef 2, i32 noundef 1, i32 noundef %29, i32 noundef 0)
  %31 = load i32, ptr %3, align 4, !tbaa !52
  %32 = sext i32 %31 to i64
  %33 = getelementptr inbounds [7 x [2 x ptr]], ptr @quant_vlc, i64 0, i64 %32
  %34 = load i32, ptr %5, align 4, !tbaa !52
  %35 = sext i32 %34 to i64
  %36 = getelementptr inbounds [2 x ptr], ptr %33, i64 0, i64 %35
  store ptr %30, ptr %36, align 8, !tbaa !91
  %37 = load i32, ptr %3, align 4, !tbaa !52
  %38 = sext i32 %37 to i64
  %39 = getelementptr inbounds [7 x i8], ptr @mpc7_quant_vlc_sizes, i64 0, i64 %38
  %40 = load i8, ptr %39, align 1, !tbaa !49
  %41 = zext i8 %40 to i32
  %42 = mul nsw i32 2, %41
  %43 = load ptr, ptr %2, align 8, !tbaa !31
  %44 = sext i32 %42 to i64
  %45 = getelementptr inbounds i8, ptr %43, i64 %44
  store ptr %45, ptr %2, align 8, !tbaa !31
  br label %46

46:                                               ; preds = %15
  %47 = load i32, ptr %5, align 4, !tbaa !52
  %48 = add nsw i32 %47, 1
  store i32 %48, ptr %5, align 4, !tbaa !52
  br label %11, !llvm.loop !93

49:                                               ; preds = %14
  br label %50

50:                                               ; preds = %49
  %51 = load i32, ptr %3, align 4, !tbaa !52
  %52 = add nsw i32 %51, 1
  store i32 %52, ptr %3, align 4, !tbaa !52
  br label %6, !llvm.loop !94

53:                                               ; preds = %9
  call void @ff_mpa_synth_init_fixed()
  call void @llvm.lifetime.end.p0(i64 8, ptr %2) #9
  call void @llvm.lifetime.end.p0(i64 16, ptr %1) #9
  ret void
}