; Function Attrs: cold nounwind optsize uwtable
define internal void @mpc7_init_static() #0 {
  %1 = alloca %struct.VLCInitState, align 8
  call void @llvm.lifetime.start.p0(i64 16, ptr nonnull %1) #8
  call void @llvm.memcpy.p0.p0.i64(ptr noundef nonnull align 8 dereferenceable(16) %1, ptr noundef nonnull align 8 dereferenceable(16) @__const.mpc7_init_static.state, i64 16, i1 false)
  tail call void @ff_vlc_init_table_from_lengths(ptr noundef nonnull @scfi_vlc, i32 noundef 8, i32 noundef 3, i32 noundef 4, ptr noundef nonnull getelementptr inbounds nuw (i8, ptr @mpc7_scfi, i64 1), i32 noundef 2, ptr noundef nonnull @mpc7_scfi, i32 noundef 2, i32 noundef 1, i32 noundef 0, i32 noundef 0) #8
  tail call void @ff_vlc_init_table_from_lengths(ptr noundef nonnull @dscf_vlc, i32 noundef 64, i32 noundef 6, i32 noundef 16, ptr noundef nonnull getelementptr inbounds nuw (i8, ptr @mpc7_dscf, i64 1), i32 noundef 2, ptr noundef nonnull @mpc7_dscf, i32 noundef 2, i32 noundef 1, i32 noundef -7, i32 noundef 0) #8
  tail call void @ff_vlc_init_table_from_lengths(ptr noundef nonnull @hdr_vlc, i32 noundef 512, i32 noundef 9, i32 noundef 10, ptr noundef nonnull getelementptr inbounds nuw (i8, ptr @mpc7_hdr, i64 1), i32 noundef 2, ptr noundef nonnull @mpc7_hdr, i32 noundef 2, i32 noundef 1, i32 noundef -5, i32 noundef 0) #8
  br label %.preheader

.preheader:                                       ; preds = %0, %11
  %indvars.iv18 = phi i64 [ 0, %0 ], [ %indvars.iv.next19, %11 ]
  %.01215 = phi ptr [ @mpc7_quant_vlcs, %0 ], [ %17, %11 ]
  %2 = getelementptr inbounds nuw [7 x i8], ptr @mpc7_quant_vlc_sizes, i64 0, i64 %indvars.iv18
  %3 = load i8, ptr %2, align 1, !tbaa !35
  %4 = zext i8 %3 to i32
  %5 = getelementptr inbounds nuw [7 x i8], ptr @mpc7_quant_vlc_off, i64 0, i64 %indvars.iv18
  %6 = load i8, ptr %5, align 1, !tbaa !35
  %7 = sext i8 %6 to i32
  %8 = zext i8 %3 to i64
  %9 = shl nuw nsw i64 %8, 1
  br label %12

10:                                               ; preds = %11
  call void @ff_mpa_synth_init_fixed() #8
  call void @llvm.lifetime.end.p0(i64 16, ptr nonnull %1) #8
  ret void

11:                                               ; preds = %12
  %indvars.iv.next19 = add nuw nsw i64 %indvars.iv18, 1
  %exitcond.not = icmp eq i64 %indvars.iv.next19, 7
  br i1 %exitcond.not, label %10, label %.preheader, !llvm.loop !75

12:                                               ; preds = %.preheader, %12
  %13 = phi i1 [ true, %.preheader ], [ false, %12 ]
  %indvars.iv = phi i64 [ 0, %.preheader ], [ 1, %12 ]
  %.113 = phi ptr [ %.01215, %.preheader ], [ %17, %12 ]
  %14 = getelementptr inbounds nuw i8, ptr %.113, i64 1
  %15 = call ptr @ff_vlc_init_tables_from_lengths(ptr noundef nonnull %1, i32 noundef 9, i32 noundef %4, ptr noundef nonnull %14, i32 noundef 2, ptr noundef %.113, i32 noundef 2, i32 noundef 1, i32 noundef %7, i32 noundef 0) #8
  %16 = getelementptr inbounds nuw [7 x [2 x ptr]], ptr @quant_vlc, i64 0, i64 %indvars.iv18, i64 %indvars.iv
  store ptr %15, ptr %16, align 8, !tbaa !65
  %17 = getelementptr inbounds nuw i8, ptr %.113, i64 %9
  br i1 %13, label %12, label %11, !llvm.loop !76
}